target datalayout = "e-m:e-p270:32:32-p271:32:32-p272:64:64-i64:64-i128:128-f80:128-n8:16:32:64-S128"
target triple = "x86_64-pc-linux-gnu"

%struct.RelationData = type { %struct.RelFileLocator, ptr, i32, i32, i8, i8, i8, i8, i8, i32, i32, i32, i32, ptr, ptr, i32, %struct.LockInfoData, ptr, ptr, ptr, ptr, ptr, i8, ptr, ptr, ptr, ptr, ptr, ptr, i32, ptr, i8, ptr, ptr, i32, i8, i32, ptr, i8, ptr, ptr, ptr, ptr, ptr, ptr, ptr, i32, ptr, ptr, ptr, ptr, ptr, ptr, ptr, ptr, ptr, ptr, ptr, ptr, ptr, ptr, ptr, ptr, ptr, ptr, ptr, i32, i8, ptr }
%struct.RelFileLocator = type { i32, i32, i32 }
%struct.LockInfoData = type { %struct.LockRelId }
%struct.LockRelId = type { i32, i32 }
%struct.FormData_pg_class = type { i32, %struct.nameData, i32, i32, i32, i32, i32, i32, i32, i32, float, i32, i32, i8, i8, i8, i8, i16, i16, i8, i8, i8, i8, i8, i8, i8, i8, i32, i32, i32 }
%struct.nameData = type { [64 x i8] }

@.str.1 = private unnamed_addr constant [10 x i8] c"indexam.c\00", align 1
@.str.15 = private unnamed_addr constant [21 x i8] c"\22%s\22 is not an index\00", align 1
@__func__.validate_relation_kind = private unnamed_addr constant [23 x i8] c"validate_relation_kind\00", align 1

; Function Attrs: inlinehint nounwind uwtable
define internal void @validate_relation_kind(ptr noundef %0) #3 {
  %2 = alloca ptr, align 8
  store ptr %0, ptr %2, align 8
  %3 = load ptr, ptr %2, align 8
  %4 = getelementptr inbounds nuw %struct.RelationData, ptr %3, i32 0, i32 13
  %5 = load ptr, ptr %4, align 8
  %6 = getelementptr inbounds nuw %struct.FormData_pg_class, ptr %5, i32 0, i32 16
  %7 = load i8, ptr %6, align 1
  %8 = sext i8 %7 to i32
  %9 = icmp ne i32 %8, 105
  br i1 %9, label %10, label %35

10:                                               ; preds = %1
  %11 = load ptr, ptr %2, align 8
  %12 = getelementptr inbounds nuw %struct.RelationData, ptr %11, i32 0, i32 13
  %13 = load ptr, ptr %12, align 8
  %14 = getelementptr inbounds nuw %struct.FormData_pg_class, ptr %13, i32 0, i32 16
  %15 = load i8, ptr %14, align 1
  %16 = sext i8 %15 to i32
  %17 = icmp ne i32 %16, 73
  br i1 %17, label %18, label %35

18:                                               ; preds = %10
  br label %19

19:                                               ; preds = %18
  br i1 true, label %20, label %22

20:                                               ; preds = %19
  %21 = call zeroext i1 @errstart_cold(i32 noundef 21, ptr noundef null) #8
  br i1 %21, label %24, label %33

22:                                               ; preds = %19
  %23 = call zeroext i1 @errstart(i32 noundef 21, ptr noundef null)
  br i1 %23, label %24, label %33

24:                                               ; preds = %22, %20
  %25 = call i32 @errcode(i32 noundef 151027844)
  %26 = load ptr, ptr %2, align 8
  %27 = getelementptr inbounds nuw %struct.RelationData, ptr %26, i32 0, i32 13
  %28 = load ptr, ptr %27, align 8
  %29 = getelementptr inbounds nuw %struct.FormData_pg_class, ptr %28, i32 0, i32 1
  %30 = getelementptr inbounds nuw %struct.nameData, ptr %29, i32 0, i32 0
  %31 = getelementptr inbounds [64 x i8], ptr %30, i64 0, i64 0
  %32 = call i32 (ptr, ...) @errmsg(ptr noundef @.str.15, ptr noundef %31)
  call void @errfinish(ptr noundef @.str.1, i32 noundef 204, ptr noundef @__func__.validate_relation_kind)
  br label %33

33:                                               ; preds = %24, %22, %20
  unreachable

34:                                               ; No predecessors!
  br label %35

35:                                               ; preds = %34, %10, %1
  ret void
}

; Function Attrs: nounwind uwtable
define dso_local ptr @try_index_open(i32 noundef %0, i32 noundef %1) #0 {
  %3 = alloca ptr, align 8
  %4 = alloca i32, align 4
  %5 = alloca i32, align 4
  %6 = alloca ptr, align 8
  %7 = alloca i32, align 4
  store i32 %0, ptr %4, align 4
  store i32 %1, ptr %5, align 4
  call void @llvm.lifetime.start.p0(i64 8, ptr %6) #7
  %8 = load i32, ptr %4, align 4
  %9 = load i32, ptr %5, align 4
  %10 = call ptr @try_relation_open(i32 noundef %8, i32 noundef %9)
  store ptr %10, ptr %6, align 8
  %11 = load ptr, ptr %6, align 8
  %12 = icmp ne ptr %11, null
  br i1 %12, label %14, label %13

13:                                               ; preds = %2
  store ptr null, ptr %3, align 8
  store i32 1, ptr %7, align 4
  br label %17

14:                                               ; preds = %2
  %15 = load ptr, ptr %6, align 8
  call void @validate_relation_kind(ptr noundef %15)
  %16 = load ptr, ptr %6, align 8
  store ptr %16, ptr %3, align 8
  store i32 1, ptr %7, align 4
  br label %17

17:                                               ; preds = %14, %13
  call void @llvm.lifetime.end.p0(i64 8, ptr %6) #7
  %18 = load ptr, ptr %3, align 8
  ret ptr %18
}