; Function Attrs: nounwind uwtable
define dso_local ptr @try_index_open(i32 noundef %0, i32 noundef %1) local_unnamed_addr #0 {
  %3 = tail call ptr @try_relation_open(i32 noundef %0, i32 noundef %1) #7
  %.not = icmp eq ptr %3, null
  br i1 %.not, label %validate_relation_kind.exit, label %4

4:                                                ; preds = %2
  %5 = getelementptr inbounds nuw i8, ptr %3, i64 56
  %6 = load ptr, ptr %5, align 8
  %7 = getelementptr inbounds nuw i8, ptr %6, i64 115
  %8 = load i8, ptr %7, align 1
  switch i8 %8, label %9 [
    i8 105, label %validate_relation_kind.exit
    i8 73, label %validate_relation_kind.exit
  ]

9:                                                ; preds = %4
  %10 = tail call zeroext i1 @errstart_cold(i32 noundef 21, ptr noundef null) #8
  tail call void @llvm.assume(i1 %10)
  %11 = tail call i32 @errcode(i32 noundef 151027844) #7
  %12 = load ptr, ptr %5, align 8
  %13 = getelementptr inbounds nuw i8, ptr %12, i64 4
  %14 = tail call i32 (ptr, ...) @errmsg(ptr noundef nonnull @.str.15, ptr noundef nonnull %13) #7
  tail call void @errfinish(ptr noundef nonnull @.str.1, i32 noundef 204, ptr noundef nonnull @__func__.validate_relation_kind) #7
  unreachable

validate_relation_kind.exit:                      ; preds = %4, %4, %2
  ret ptr %3
}